(lp0
(dp1
S'album'
p2
VOnly With Laughte...
p3
sS'artist'
p4
VRosie Thomas
p5
sS'title'
p6
VSell All My Things
p7
sS'cover'
p8
Vhttp://img3.douban.com/mpic/s1462190.jpg
p9
sS'mp3'
p10
Vhttp://mr3.douban.com/201310231100/5b59cb5a1a29722cbd58516ffb455bae/view/song/small/p1026769.mp3
p11
sS'ogg'
p12
g11
sa(dp13
g2
VC-Sides
p14
sg4
VChris Garneau
p15
sg6
VThe Runt
p16
sg8
Vhttp://img4.douban.com/mpic/s2813058.jpg
p17
sg10
Vhttp://mr4.douban.com/201310231100/c352989a1e0fbed5d2f34b067472320f/view/song/small/p1385082.mp3
p18
sg12
g18
sa(dp19
g2
VWhen We Were Small
p20
sg4
VRosie Thomas
p21
sg6
VHave You Seen My Love
p22
sg8
Vhttp://img3.douban.com/mpic/s4509002.jpg
p23
sg10
Vhttp://mr5.douban.com/201310231100/d8c7016c72e12a085c56184ad5b87bf8/view/song/small/p697201.mp3
p24
sg12
g24
sa(dp25
g2
VMemory Loves You
p26
sg4
VSophie Zelmani
p27
sg6
VTravelling
p28
sg8
Vhttp://img3.douban.com/mpic/s2142910.jpg
p29
sg10
Vhttp://mr5.douban.com/201310231100/c6df4abd1b6bc541a394bc8b66c86939/view/song/small/p490061.mp3
p30
sg12
g30
sa(dp31
g2
VA Good Day
p32
sg4
VPriscilla Ahn
p33
sg6
VDream
p34
sg8
Vhttp://img5.douban.com/mpic/s3187209.jpg
p35
sg10
Vhttp://mr3.douban.com/201310231100/ad93808ac025f5408b7745443ac4aeb6/view/song/small/p1381669.mp3
p36
sg12
g36
sa(dp37
g2
VLight & Dark
p38
sg4
VKate Walsh
p39
sg6
VJune Last Year
p40
sg8
Vhttp://img4.douban.com/mpic/s3953668.jpg
p41
sg10
Vhttp://mr5.douban.com/201310231100/45bfc850e65b0336100189b7b47bd68e/view/song/small/p1534121.mp3
p42
sg12
g42
sa(dp43
g2
VTim's House
p44
sg4
VKate Walsh
p45
sg6
VTonight
p46
sg8
Vhttp://img3.douban.com/mpic/s2401644.jpg
p47
sg10
Vhttp://mr3.douban.com/201310231100/ae82bd6ebc0ac44e31c9593bc5fdc836/view/song/small/p466769.mp3
p48
sg12
g48
sa(dp49
g2
VI'm the Rain
p50
sg4
VSophie Zelmani
p51
sg6
VNot With You
p52
sg8
Vhttp://img3.douban.com/mpic/s4156772.jpg
p53
sg10
Vhttp://mr3.douban.com/201310231100/2446ac7544de072df0d73d7c46ed0317/view/song/small/p1455108.mp3
p54
sg12
g54
sa(dp55
g2
VAce Of Hearts
p56
sg4
VGreen Pitch
p57
sg6
VHaunted By The Moon
p58
sg8
Vhttp://img3.douban.com/mpic/s2609910.jpg
p59
sg10
Vhttp://mr4.douban.com/201310231100/e92a3d399c55e655e6dd3af2a5daadcf/view/song/small/p699462.mp3
p60
sg12
g60
sa(dp61
g2
VIntroducing... He...
p62
sg4
VHello Saferide
p63
sg6
VI Don't Sleep Well
p64
sg8
Vhttp://img3.douban.com/view/site/large/public/b973e4a593801bf.jpg
p65
sg10
Vhttp://mr3.douban.com/201310231100/99717fde9ca33bfab746a1e32338b0f4/view/song/small/p1381138.mp3
p66
sg12
g66
sa(dp67
g2
VRelations
p68
sg4
VKathryn Williams
p69
sg6
VBallad Of Easy River
p70
sg8
Vhttp://img3.douban.com/mpic/s1683470.jpg
p71
sg10
Vhttp://mr4.douban.com/201310231100/4131e867b1731887bee6ddb82b378d20/view/song/small/p148792.mp3
p72
sg12
g72
sa(dp73
g2
VKeep Movin - Keep...
p74
sg4
VEgil Olsen
p75
sg6
Vturn into air
p76
sg8
Vhttp://img3.douban.com/mpic/s6338820.jpg
p77
sg10
Vhttp://mr3.douban.com/201310231100/1a37379b4c510dfcc2e446cf46fcf9b2/view/song/small/p1849166.mp3
p78
sg12
g78
sa(dp79
g2
VLoved
p80
sg4
VJJ Heller
p81
sg6
VWho You Are (Bonus Track)
p82
sg8
Vhttp://img3.douban.com/mpic/s25953671.jpg
p83
sg10
Vhttp://mr3.douban.com/201310231100/0330f1495ee57ad7c02324fadaf3fa04/view/song/small/p1895099.mp3
p84
sg12
g84
sa(dp85
g2
VKeep Movin - Keep...
p86
sg4
VEgil Olsen
p87
sg6
Vkeep movin
p88
sg8
Vhttp://img3.douban.com/mpic/s6338820.jpg
p89
sg10
Vhttp://mr3.douban.com/201310231100/ceee2afd7ce32d2e1081b79f8e0a82e9/view/song/small/p1849156.mp3
p90
sg12
g90
sa(dp91
g2
VLoved
p92
sg4
VJJ Heller
p93
sg6
VIf You Fall
p94
sg8
Vhttp://img3.douban.com/mpic/s25953671.jpg
p95
sg10
Vhttp://mr3.douban.com/201310231100/e42d268a68996d25c50d97813c17e4ae/view/song/small/p1895086.mp3
p96
sg12
g96
sa(dp97
g2
VOlivia
p98
sg4
VOlivia Ong
p99
sg6
VLuka
p100
sg8
Vhttp://img3.douban.com/mpic/s4239624.jpg
p101
sg10
Vhttp://mr3.douban.com/201310231100/894c58471246fe0216c038d77693659f/view/song/small/p1458028.mp3
p102
sg12
g102
sa(dp103
g2
VA Little Happiness
p104
sg4
VAimee Allen
p105
sg6
VSanteria
p106
sg8
Vhttp://img3.douban.com/mpic/s3852364.jpg
p107
sg10
Vhttp://mr5.douban.com/201310231100/52a4f7b4e482b134693b8ebf678d0728/view/song/small/p1474961.mp3
p108
sg12
g108
sa(dp109
g2
VDown The Way
p110
sg4
VAngus & Julia Stone
p111
sg6
VBig Jet Plane
p112
sg8
Vhttp://img3.douban.com/mpic/s4212643.jpg
p113
sg10
Vhttp://mr3.douban.com/201310231100/37dcb526a71b6d79c5511395a8d05b2c/view/song/small/p1641126.mp3
p114
sg12
g114
sa(dp115
g2
VO
p116
sg4
VDamien Rice
p117
sg6
VThe Blower's Daughter
p118
sg8
Vhttp://img3.douban.com/mpic/s2838077.jpg
p119
sg10
Vhttp://mr3.douban.com/201310231100/6c46a324f1fc09b67da478047165f139/view/song/small/p553008.mp3
p120
sg12
g120
sa(dp121
g2
VInland Territory
p122
sg4
VVienna Teng
p123
sg6
VThe Last Snowfall
p124
sg8
Vhttp://img3.douban.com/mpic/s3775721.jpg
p125
sg10
Vhttp://mr3.douban.com/201310231100/40392b34d307a583e7908704a7651ce9/view/song/small/p1382396.mp3
p126
sg12
g126
sa(dp127
g2
VCome Away with Me
p128
sg4
VNorah Jones
p129
sg6
VOne Flight Down
p130
sg8
Vhttp://img3.douban.com/mpic/s3845165.jpg
p131
sg10
Vhttp://mr4.douban.com/201310231100/8c5b3f25355054c90ce36659ada708cd/view/song/small/p1027783.mp3
p132
sg12
g132
sa(dp133
g2
VTwentythree
p134
sg4
VTristan Prettyman
p135
sg6
VLove Love Love
p136
sg8
Vhttp://img3.douban.com/mpic/s4714100.jpg
p137
sg10
Vhttp://mr3.douban.com/201310231100/3cd15f9a65f7beb42eba355a8bc49c0f/view/song/small/p505019.mp3
p138
sg12
g138
sa(dp139
g2
V\u5bb6\u7684\u611f\u89c9
p140
sg4
VNorah Jones
p141
sg6
VThose Sweet Words
p142
sg8
Vhttp://img5.douban.com/mpic/s1423059.jpg
p143
sg10
Vhttp://mr4.douban.com/201310231100/ab111db93d548d7042f75b17126d954e/view/song/small/p156642.mp3
p144
sg12
g144
sa(dp145
g2
VBells
p146
sg4
VLaura Jansen
p147
sg6
VThe End
p148
sg8
Vhttp://img3.douban.com/view/site/large/public/30a7969ee592543.jpg
p149
sg10
Vhttp://mr3.douban.com/201310231100/fa0c6d2f119a7c662512eb3deb271710/view/song/small/p1616225.mp3
p150
sg12
g150
sa(dp151
g2
VDreaming Through ...
p152
sg4
VVienna Teng
p153
sg6
VNothing Without You
p154
sg8
Vhttp://img3.douban.com/mpic/s1666062.jpg
p155
sg10
Vhttp://mr4.douban.com/201310231100/6b7bc0f6092fce1ef9f1031fd289edd6/view/song/small/p362103.mp3
p156
sg12
g156
sa.