(lp0
(dp1
S'album'
p2
VLoved
p3
sS'artist'
p4
VJJ Heller
p5
sS'title'
p6
VStay
p7
sS'cover'
p8
Vhttp://img3.douban.com/mpic/s25953671.jpg
p9
sS'mp3'
p10
Vhttp://mr5.douban.com/201310222042/9a16a35d6e87a241f135c9a16de5d13d/view/song/small/p1895091.mp3
p11
sS'ogg'
p12
g11
sa(dp13
g2
VUnder The Town
p14
sg4
VHolly Throsby
p15
sg6
VCome Visit
p16
sg8
Vhttp://img3.douban.com/mpic/s2879232.jpg
p17
sg10
Vhttp://mr3.douban.com/201310222042/806b2849242e00c9476b145944c55293/view/song/small/p499657.mp3
p18
sg12
g18
sa(dp19
g2
VThese Friends Of ...
p20
sg4
VRosie Thomas
p21
sg6
VPaper Doll
p22
sg8
Vhttp://img4.douban.com/mpic/s2674348.jpg
p23
sg10
Vhttp://mr3.douban.com/201310222042/3bfa103d0fe9228d18811a0bcf081303/view/song/small/p377535.mp3
p24
sg12
g24
sa(dp25
g2
VA Good Day
p26
sg4
VPriscilla Ahn
p27
sg6
VFind My Way Back Home
p28
sg8
Vhttp://img5.douban.com/mpic/s3187209.jpg
p29
sg10
Vhttp://mr3.douban.com/201310222042/7f8cad765dc7894253cbb330d871f3b2/view/song/small/p1381677.mp3
p30
sg12
g30
sa(dp31
g2
VUnder The Town
p32
sg4
VHolly Throsby
p33
sg6
VOn Longing
p34
sg8
Vhttp://img3.douban.com/mpic/s2879232.jpg
p35
sg10
Vhttp://mr3.douban.com/201310222042/8b15522c292ce445fdb34c686761c0bc/view/song/small/p499655.mp3
p36
sg12
g36
sa(dp37
g2
VFAKE BOOK
p38
sg4
V\u5927\u6a4b\u30c8\u30ea\u30aa
p39
sg6
VDancing In The Moonlight
p40
sg8
Vhttp://img3.douban.com/mpic/s4164197.jpg
p41
sg10
Vhttp://mr3.douban.com/201310222042/261c4e3984ab9a86442054b6cdc62f39/view/song/small/p1475059.mp3
p42
sg12
g42
sa(dp43
g2
VTim's House
p44
sg4
VKate Walsh
p45
sg6
VFrench Song
p46
sg8
Vhttp://img3.douban.com/mpic/s2401644.jpg
p47
sg10
Vhttp://mr3.douban.com/201310222042/4a836dfe6b9996815e6888a43177dcc2/view/song/small/p466768.mp3
p48
sg12
g48
sa(dp49
g2
VUnbroken
p50
sg4
VKatharine McPhee
p51
sg6
VSurrender
p52
sg8
Vhttp://img3.douban.com/mpic/s4131036.jpg
p53
sg10
Vhttp://mr3.douban.com/201310222042/366bdd623aead618f0f18806f8558abf/view/song/small/p1457266.mp3
p54
sg12
g54
sa(dp55
g2
VKeep Walking or I...
p56
sg4
VAgnes Kain
p57
sg6
VAll Time High
p58
sg8
Vhttp://img3.douban.com/view/site/large/public/dfcf80765dae65d.jpg
p59
sg10
Vhttp://mr4.douban.com/201310222042/aafe633d1bc1760bad691dfc93e8773b/view/song/small/p1583522.mp3
p60
sg12
g60
sa(dp61
g2
VAnchor
p62
sg4
VMindy Gledhill
p63
sg6
VI Do Adore
p64
sg8
Vhttp://img3.douban.com/mpic/s4462522.jpg
p65
sg10
Vhttp://mr3.douban.com/201310222042/34b4b318fa50ccd6fab8fff4a04372a9/view/song/small/p1639686.mp3
p66
sg12
g66
sa(dp67
g2
VTim's House
p68
sg4
VKate Walsh
p69
sg6
VYour Song
p70
sg8
Vhttp://img3.douban.com/mpic/s2401644.jpg
p71
sg10
Vhttp://mr3.douban.com/201310222042/ea28d20196f698633a5e471f1cf3faa1/view/song/small/p406986.mp3
p72
sg12
g72
sa(dp73
g2
VMondialito
p74
sg4
VMondialito
p75
sg6
VSommeil Des Vrilles
p76
sg8
Vhttp://img3.douban.com/mpic/s1692595.jpg
p77
sg10
Vhttp://mr3.douban.com/201310222042/f1f658257a1c69c3d698d119d551a334/view/song/small/p155169.mp3
p78
sg12
g78
sa(dp79
g2
VC'mon Miracle
p80
sg4
VMirah
p81
sg6
VDon't Die In Me
p82
sg8
Vhttp://img3.douban.com/mpic/s1407501.jpg
p83
sg10
Vhttp://mr4.douban.com/201310222042/f024ba421a69f3f177f49e5a04ea2833/view/song/small/p628062.mp3
p84
sg12
g84
sa(dp85
g2
VLoved
p86
sg4
VJJ Heller
p87
sg6
VWho You Are (Bonus Track)
p88
sg8
Vhttp://img3.douban.com/mpic/s25953671.jpg
p89
sg10
Vhttp://mr3.douban.com/201310222042/c3c149e6695da9ee102dcec8d016f812/view/song/small/p1895099.mp3
p90
sg12
g90
sa(dp91
g2
VWhat We Left Behind
p92
sg4
V A Dancing Beggar
p93
sg6
VSand Between Our Toes
p94
sg8
Vhttp://img3.douban.com/mpic/s4001354.jpg
p95
sg10
Vhttp://mr4.douban.com/201310222042/34af9202397a8232ebe5b51ad77027be/view/song/small/p1809142.mp3
p96
sg12
g96
sa(dp97
g2
VMiracle of Five
p98
sg4
VEleni Mandell
p99
sg6
VWings In His Eyes
p100
sg8
Vhttp://img4.douban.com/mpic/s2961718.jpg
p101
sg10
Vhttp://mr3.douban.com/201310222042/fbbfd89c08142ab1481dad3d48565947/view/song/small/p655099.mp3
p102
sg12
g102
sa(dp103
g2
V\u512a\u3057\u3044\u6642\u9593
p104
sg4
V\u6e21\u8fba\u4fca\u5e78
p105
sg6
V\u660e\u65e5
p106
sg8
Vhttp://img3.douban.com/mpic/s4631046.jpg
p107
sg10
Vhttp://mr5.douban.com/201310222042/0723087e90a1442fa288028507eed0b3/view/song/small/p1493741.mp3
p108
sg12
g108
sa(dp109
g2
VEverybody
p110
sg4
VIngrid Michaelson
p111
sg6
VSort Of
p112
sg8
Vhttp://img3.douban.com/mpic/s3931476.jpg
p113
sg10
Vhttp://mr4.douban.com/201310222042/17186a3d2e9310dc8b580cabad0e61bb/view/song/small/p1641253.mp3
p114
sg12
g114
sa(dp115
g2
VSafe in a Crazy W...
p116
sg4
VCorrinne May
p117
sg6
VEverything In It's Time
p118
sg8
Vhttp://img3.douban.com/mpic/s2761050.jpg
p119
sg10
Vhttp://mr5.douban.com/201310222042/6e35d0db39e700d8e45425b52460afb4/view/song/small/p137531.mp3
p120
sg12
g120
sa(dp121
g2
VTwentythree
p122
sg4
VTristan Prettyman
p123
sg6
VLove Love Love
p124
sg8
Vhttp://img3.douban.com/mpic/s4714100.jpg
p125
sg10
Vhttp://mr3.douban.com/201310222042/bfbe6375880d4c722574602aa270cd32/view/song/small/p505019.mp3
p126
sg12
g126
sa(dp127
g2
VBefriended
p128
sg4
VThe Innocence Mission
p129
sg6
VWalking Around
p130
sg8
Vhttp://img3.douban.com/mpic/s4559240.jpg
p131
sg10
Vhttp://mr3.douban.com/201310222042/74d10dc5962db02c1f085b0d79a8925e/view/song/small/p372858.mp3
p132
sg12
g132
sa(dp133
g2
VYou Who Pretend T...
p134
sg4
VJoy Wants Eternity
p135
sg6
VFrom Embrace To Embrace
p136
sg8
Vhttp://img3.douban.com/mpic/s3514853.jpg
p137
sg10
Vhttp://mr3.douban.com/201310222042/4796b821515ce394b780c7b3d5ecb565/view/song/small/p1003069.mp3
p138
sg12
g138
sa(dp139
g2
VApple Tree
p140
sg4
VKatie Herzig
p141
sg6
VShovel
p142
sg8
Vhttp://img3.douban.com/mpic/s3163061.jpg
p143
sg10
Vhttp://mr4.douban.com/201310222042/a4bcdbc6c70288f3f24d3d8a0a051e7c/view/song/small/p148822.mp3
p144
sg12
g144
sa(dp145
g2
VIf Only You Were ...
p146
sg4
VHawthorne Heights
p147
sg6
VDecembers
p148
sg8
Vhttp://img3.douban.com/mpic/s6879332.jpg
p149
sg10
Vhttp://mr3.douban.com/201310222042/ab1dcd0c6008c43dbea91a66728814d2/view/song/small/p4567.mp3
p150
sg12
g150
sa(dp151
g2
VTriple J Live
p152
sg4
VAngus & Julia Stone
p153
sg6
VBlack Crow
p154
sg8
Vhttp://img3.douban.com/mpic/s7000701.jpg
p155
sg10
Vhttp://mr4.douban.com/201310222042/b154707dda8990aa7666eb89d6820d73/view/song/small/p1886933.mp3
p156
sg12
g156
sa(dp157
g2
V\u4e0d\u51c6\u54ed
p158
sg4
V\u540c\u6069
p159
sg6
V\u5728\u4f60\u773c\u91cc (\u5730\u4e0b\u94c1\u7247\u5c3e\u66f2)
p160
sg8
Vhttp://img3.douban.com/mpic/s1666834.jpg
p161
sg10
Vhttp://mr3.douban.com/201310222042/f55ef7d8b381e081504dcab72f14b809/view/song/small/p629327.mp3
p162
sg12
g162
sa(dp163
g2
VHappiness
p164
sg4
VThe Weepies
p165
sg6
VSimple Life
p166
sg8
Vhttp://img3.douban.com/mpic/s2616450.jpg
p167
sg10
Vhttp://mr3.douban.com/201310222042/68ea5b9761a162ba7256ef8cd7db6a98/view/song/small/p1041117.mp3
p168
sg12
g168
sa(dp169
g2
VHideaway
p170
sg4
VThe Weepies
p171
sg6
VHideaway
p172
sg8
Vhttp://img5.douban.com/mpic/s3023379.jpg
p173
sg10
Vhttp://mr3.douban.com/201310222042/c4284caba1129031749cfaa0258e1add/view/song/small/p167218.mp3
p174
sg12
g174
sa(dp175
g2
VAce Of Hearts
p176
sg4
VGreen Pitch
p177
sg6
VMidnight
p178
sg8
Vhttp://img3.douban.com/mpic/s2609910.jpg
p179
sg10
Vhttp://mr5.douban.com/201310222042/d9a168ac0afa1feb190cfde1dc6f66db/view/song/small/p699461.mp3
p180
sg12
g180
sa(dp181
g2
VYield
p182
sg4
VArco
p183
sg6
Veyes to see
p184
sg8
Vhttp://img3.douban.com/mpic/s4715005.jpg
p185
sg10
Vhttp://mr3.douban.com/201310222042/92e80053e47d95d9b86d666dd7da8fda/view/song/small/p1468718.mp3
p186
sg12
g186
sa(dp187
g2
VThese Friends Of ...
p188
sg4
VRosie Thomas
p189
sg6
VSay Hello
p190
sg8
Vhttp://img4.douban.com/mpic/s2674348.jpg
p191
sg10
Vhttp://mr3.douban.com/201310222042/e81be845e7df04d08ce70048bcc4c00d/view/song/small/p377539.mp3
p192
sg12
g192
sa(dp193
g2
VDreaming Through ...
p194
sg4
VVienna Teng
p195
sg6
VCity Hall
p196
sg8
Vhttp://img3.douban.com/mpic/s1666062.jpg
p197
sg10
Vhttp://mr4.douban.com/201310222042/01acdc4bbd3277345c43cee63ff015af/view/song/small/p362102.mp3
p198
sg12
g198
sa(dp199
g2
VCome Away with Me
p200
sg4
VNorah Jones
p201
sg6
VShoot The Moon
p202
sg8
Vhttp://img3.douban.com/mpic/s3845165.jpg
p203
sg10
Vhttp://mr3.douban.com/201310222042/2849a2412240cb93274b53ac1c7e135a/view/song/small/p1027786.mp3
p204
sg12
g204
sa(dp205
g2
VYou.Me.We
p206
sg4
VCivalias
p207
sg6
VAnything But You
p208
sg8
Vhttp://img3.douban.com/mpic/s3333260.jpg
p209
sg10
Vhttp://mr4.douban.com/201310222042/9688f0395a0618d36378763c02f94237/view/song/small/p1386424.mp3
p210
sg12
g210
sa(dp211
g2
VMademoiselle
p212
sg4
VBerry
p213
sg6
VBelle Comme Tout
p214
sg8
Vhttp://img3.douban.com/mpic/s4640673.jpg
p215
sg10
Vhttp://mr4.douban.com/201310222042/f4afe96a4e7b922157d9a2eb0c74ba3a/view/song/small/p1380732.mp3
p216
sg12
g216
sa(dp217
g2
VEverybody
p218
sg4
VIngrid Michaelson
p219
sg6
VEverybody
p220
sg8
Vhttp://img3.douban.com/mpic/s3931476.jpg
p221
sg10
Vhttp://mr5.douban.com/201310222042/029a07b08003954bd41d77f91c2cb758/view/song/small/p1641251.mp3
p222
sg12
g222
sa(dp223
g2
VSweet and Wild
p224
sg4
VJewel
p225
sg6
VFading
p226
sg8
Vhttp://img3.douban.com/mpic/s4370242.jpg
p227
sg10
Vhttp://mr4.douban.com/201310222042/1fdd90dd7cafe405d174b95929f6a1c2/view/song/small/p1478792.mp3
p228
sg12
g228
sa(dp229
g2
VBest Audiophile V...
p230
sg4
VStacey Kent
p231
sg6
VYou've Got a Friend
p232
sg8
Vhttp://img4.douban.com/mpic/s2955238.jpg
p233
sg10
Vhttp://mr5.douban.com/201310222042/8bd71917acc8ca7dc1ae912d5e13661e/view/song/small/p177851.mp3
p234
sg12
g234
sa(dp235
g2
VRelations
p236
sg4
VKathryn Williams
p237
sg6
VBallad Of Easy River
p238
sg8
Vhttp://img3.douban.com/mpic/s1683470.jpg
p239
sg10
Vhttp://mr4.douban.com/201310222042/4dd779ac2821af84130306e31c77ddfa/view/song/small/p148792.mp3
p240
sg12
g240
sa(dp241
g2
VGood Day
p242
sg4
VPriscilla Ahn
p243
sg6
VMoonbeam Song (Bonus Track)
p244
sg8
Vhttp://img5.douban.com/mpic/s3814329.jpg
p245
sg10
Vhttp://mr3.douban.com/201310222042/a766a8f8914f0f32a5aa2d46f61aa3db/view/song/small/p1526080.mp3
p246
sg12
g246
sa.