(lp0
(dp1
S'album'
p2
VLet There Be Morning
p3
sS'artist'
p4
VThe Perishers
p5
sS'title'
p6
VMy Heart
p7
sS'cover'
p8
Vhttp://img3.douban.com/mpic/s1480422.jpg
p9
sS'mp3'
p10
Vhttp://mr4.douban.com/201310240010/fa16884ebb91301500e2248e6fde109c/view/song/small/p504714.mp3
p11
sS'ogg'
p12
g11
sa(dp13
g2
VANT
p14
sg4
VANT
p15
sg6
VSpent Too Long Walking With No
p16
sg8
Vhttp://img3.douban.com/view/site/large/public/e693a5823009e13.jpg
p17
sg10
Vhttp://mr3.douban.com/201310240010/45ed9033ef54e975ac27a12a98fa3f71/view/song/small/p1663167.mp3
p18
sg12
g18
sa(dp19
g2
VThese Friends Of ...
p20
sg4
VRosie Thomas
p21
sg6
VSongbird
p22
sg8
Vhttp://img4.douban.com/mpic/s2674348.jpg
p23
sg10
Vhttp://mr3.douban.com/201310240010/f8cc23a370642fb94b79a9c6a386a417/view/song/small/p377537.mp3
p24
sg12
g24
sa(dp25
g2
VThe Chaos In Order
p26
sg4
VLet's Go Sailing
p27
sg6
VThis Rope Is Long
p28
sg8
Vhttp://img3.douban.com/mpic/s2676314.jpg
p29
sg10
Vhttp://mr3.douban.com/201310240010/59e5939a4dd02ebd74327e7b13d4d71c/view/song/small/p714225.mp3
p30
sg12
g30
sa(dp31
g2
VJoy. The Machine.
p32
sg4
VEmme Packer
p33
sg6
VA Poem
p34
sg8
Vhttp://img3.douban.com/mpic/s3551473.jpg
p35
sg10
Vhttp://mr3.douban.com/201310240010/3fc42daa8f20e6cde2cdd7ff15a37277/view/song/small/p1475487.mp3
p36
sg12
g36
sa(dp37
g2
VLoved
p38
sg4
VJJ Heller
p39
sg6
VRedemption
p40
sg8
Vhttp://img3.douban.com/mpic/s25953671.jpg
p41
sg10
Vhttp://mr3.douban.com/201310240010/b9c809edb861dccc84b8c61418329a25/view/song/small/p1895088.mp3
p42
sg12
g42
sa(dp43
g2
VLoved
p44
sg4
VJJ Heller
p45
sg6
VI Believe (Bonus Track)
p46
sg8
Vhttp://img3.douban.com/mpic/s25953671.jpg
p47
sg10
Vhttp://mr3.douban.com/201310240010/43f7bb819cdbfd45865c2efb135d285d/view/song/small/p1895098.mp3
p48
sg12
g48
sa(dp49
g2
VKeep Movin - Keep...
p50
sg4
VEgil Olsen
p51
sg6
Vkeep movin
p52
sg8
Vhttp://img3.douban.com/mpic/s6338820.jpg
p53
sg10
Vhttp://mr3.douban.com/201310240010/4b8ce6636820c9db9662a8862d35d358/view/song/small/p1849156.mp3
p54
sg12
g54
sa(dp55
g2
VWhen We Were Small
p56
sg4
VRosie Thomas
p57
sg6
VLorraine
p58
sg8
Vhttp://img3.douban.com/mpic/s4509002.jpg
p59
sg10
Vhttp://mr3.douban.com/201310240010/c56035c12ce685acfbe9220bc92c9d6b/view/song/small/p697199.mp3
p60
sg12
g60
sa(dp61
g2
VAshfield Avenue
p62
sg4
VAlondra Bentley
p63
sg6
VOf All Living Creatures, Why A Human Being
p64
sg8
Vhttp://img3.douban.com/mpic/s3770906.jpg
p65
sg10
Vhttp://mr3.douban.com/201310240010/06d219b04ddc517b733fe0c744512ad8/view/song/small/p1385975.mp3
p66
sg12
g66
sa(dp67
g2
VHeartwood
p68
sg4
VAmanda Rogers
p69
sg6
VFate's Northern Shore
p70
sg8
Vhttp://img3.douban.com/mpic/s3370275.jpg
p71
sg10
Vhttp://mr4.douban.com/201310240010/8fa13a55f055d9981faa38938dd8ffed/view/song/small/p130993.mp3
p72
sg12
g72
sa(dp73
g2
VBe My Thrill
p74
sg4
VThe Weepies
p75
sg6
VHummingbird
p76
sg8
Vhttp://img3.douban.com/mpic/s4397155.jpg
p77
sg10
Vhttp://mr3.douban.com/201310240010/fcc277b568395c44848a2f6ced1716d3/view/song/small/p1640869.mp3
p78
sg12
g78
sa(dp79
g2
VDear Companion
p80
sg4
VMeg Baird
p81
sg6
VWillie O'winsbury
p82
sg8
Vhttp://img3.douban.com/mpic/s4713396.jpg
p83
sg10
Vhttp://mr5.douban.com/201310240010/64cfb999b3237c2d7d1dd4e468adab8e/view/song/small/p535261.mp3
p84
sg12
g84
sa(dp85
g2
VMiracle of Five
p86
sg4
VEleni Mandell
p87
sg6
VWings In His Eyes
p88
sg8
Vhttp://img4.douban.com/mpic/s2961718.jpg
p89
sg10
Vhttp://mr3.douban.com/201310240010/7b64dd32d460750cdb63636801677e13/view/song/small/p655099.mp3
p90
sg12
g90
sa(dp91
g2
V11:11
p92
sg4
VMaria Taylor
p93
sg6
VSpeak Easy
p94
sg8
Vhttp://img3.douban.com/mpic/s1432070.jpg
p95
sg10
Vhttp://mr3.douban.com/201310240010/e9f5a73f43176195c30bc8badf24f648/view/song/small/p624549.mp3
p96
sg12
g96
sa(dp97
g2
VPrecious Burden
p98
sg4
VSophie Zelmani
p99
sg6
VSo Long
p100
sg8
Vhttp://img5.douban.com/mpic/s4716339.jpg
p101
sg10
Vhttp://mr3.douban.com/201310240010/cf6ed34349d623066475be7786ab3d15/view/song/small/p379066.mp3
p102
sg12
g102
sa(dp103
g2
VThe Drifter & The...
p104
sg4
VRosi Golan
p105
sg6
VYesteryear
p106
sg8
Vhttp://img3.douban.com/mpic/s3895311.jpg
p107
sg10
Vhttp://mr3.douban.com/201310240010/9b8208d21f7d755f3bb8152c621e49fd/view/song/small/p1640250.mp3
p108
sg12
g108
sa(dp109
g2
VThe Drifter & The...
p110
sg4
VRosi Golan
p111
sg6
VHazy (Featuring William Fitzsimmons)
p112
sg8
Vhttp://img3.douban.com/mpic/s3895311.jpg
p113
sg10
Vhttp://mr5.douban.com/201310240010/33be9053b4648bf244a856b10eb4bf17/view/song/small/p1640251.mp3
p114
sg12
g114
sa(dp115
g2
VTim's House
p116
sg4
VKate Walsh
p117
sg6
VYour Song
p118
sg8
Vhttp://img3.douban.com/mpic/s2401644.jpg
p119
sg10
Vhttp://mr3.douban.com/201310240010/3a291ee7386e405fc1f2997f7036099e/view/song/small/p406986.mp3
p120
sg12
g120
sa(dp121
g2
VCome Away with Me
p122
sg4
VNorah Jones
p123
sg6
VOne Flight Down
p124
sg8
Vhttp://img3.douban.com/mpic/s3845165.jpg
p125
sg10
Vhttp://mr4.douban.com/201310240010/14b4cb7cf8b196b312162139b0c87772/view/song/small/p1027783.mp3
p126
sg12
g126
sa(dp127
g2
VMy Best Friend's ...
p128
sg4
VSophie Zelmani
p129
sg6
VAlways You
p130
sg8
Vhttp://img3.douban.com/mpic/s1400005.jpg
p131
sg10
Vhttp://mr3.douban.com/201310240010/4c7b4da0c46b56738a71edf94fa85a1e/view/song/small/p967476.mp3
p132
sg12
g132
sa(dp133
g2
V\u5bb6\u7684\u611f\u89c9
p134
sg4
VNorah Jones
p135
sg6
VThose Sweet Words
p136
sg8
Vhttp://img5.douban.com/mpic/s1423059.jpg
p137
sg10
Vhttp://mr4.douban.com/201310240010/eddf8e14c2dca2ff3cdfa74791610442/view/song/small/p156642.mp3
p138
sg12
g138
sa(dp139
g2
VAnchor
p140
sg4
VMindy Gledhill
p141
sg6
VAnchor
p142
sg8
Vhttp://img3.douban.com/mpic/s4462522.jpg
p143
sg10
Vhttp://mr3.douban.com/201310240010/e357fee1ec76e260290a1e3d2fe093e4/view/song/small/p1639679.mp3
p144
sg12
g144
sa(dp145
g2
Vxx
p146
sg4
VThe xx
p147
sg6
VIntro
p148
sg8
Vhttp://img3.douban.com/view/site/large/public/8f0a800c08e8b9e.jpg
p149
sg10
Vhttp://mr5.douban.com/201310240010/ede885b6dc96597c5b6b9cda92a85407/view/song/small/p1474061.mp3
p150
sg12
g150
sa(dp151
g2
VNothing Like The ...
p152
sg4
VEgil Olsen
p153
sg6
VDot
p154
sg8
Vhttp://img3.douban.com/view/site/large/public/2a9d930843dbd6c.jpg
p155
sg10
Vhttp://mr3.douban.com/201310240010/8454005ca4b5a6c71627352edfdc965e/view/song/small/p1473536.mp3
p156
sg12
g156
sa(dp157
g2
VMy Friends All Di...
p158
sg4
VCocoon
p159
sg6
VHummingbird
p160
sg8
Vhttp://img3.douban.com/view/site/large/public/d7871605c4f61aa.jpg
p161
sg10
Vhttp://mr3.douban.com/201310240010/de8a48ae529eb8b3b1cf37c5733432f6/view/song/small/p522060.mp3
p162
sg12
g162
sa.