(lp0
(dp1
S'album'
p2
V\u5bb6\u7684\u611f\u89c9
p3
sS'artist'
p4
VNorah Jones
p5
sS'title'
p6
VThose Sweet Words
p7
sS'cover'
p8
Vhttp://img5.douban.com/mpic/s1423059.jpg
p9
sS'mp3'
p10
Vhttp://mr4.douban.com/201310241317/6319f2a442455e603784da575907eb95/view/song/small/p156642.mp3
p11
sS'ogg'
p12
g11
sa(dp13
g2
VApple Tree
p14
sg4
VKatie Herzig
p15
sg6
VShovel
p16
sg8
Vhttp://img3.douban.com/mpic/s3163061.jpg
p17
sg10
Vhttp://mr4.douban.com/201310241317/c7b0833bf27fd71a234b240df195b7a0/view/song/small/p148822.mp3
p18
sg12
g18
sa(dp19
g2
VA Little Happiness
p20
sg4
VAimee Allen
p21
sg6
VSanteria
p22
sg8
Vhttp://img3.douban.com/mpic/s3852364.jpg
p23
sg10
Vhttp://mr5.douban.com/201310241317/216765b7bc7a95e17166e70829bbb9bc/view/song/small/p1474961.mp3
p24
sg12
g24
sa(dp25
g2
VWhen We Were Small
p26
sg4
VRosie Thomas
p27
sg6
VWedding Day
p28
sg8
Vhttp://img3.douban.com/mpic/s4509002.jpg
p29
sg10
Vhttp://mr4.douban.com/201310241317/6ebc318d0dfb1a49913271911552082b/view/song/small/p697203.mp3
p30
sg12
g30
sa(dp31
g2
VHello...x
p32
sg4
VTristan Prettyman
p33
sg6
VJust A Little Bit
p34
sg8
Vhttp://img3.douban.com/mpic/s3042316.jpg
p35
sg10
Vhttp://mr3.douban.com/201310241317/aa578a6794d8a2b59e020800b71a074b/view/song/small/p368165.mp3
p36
sg12
g36
sa(dp37
g2
VNothing Like The ...
p38
sg4
VEgil Olsen
p39
sg6
VDot
p40
sg8
Vhttp://img3.douban.com/view/site/large/public/2a9d930843dbd6c.jpg
p41
sg10
Vhttp://mr3.douban.com/201310241317/c545410a0db048128e7b505bed4f1389/view/song/small/p1473536.mp3
p42
sg12
g42
sa(dp43
g2
VMTV Unplugged
p44
sg4
VOasis
p45
sg6
VWhatever
p46
sg8
Vhttp://img3.douban.com/mpic/s4238877.jpg
p47
sg10
Vhttp://mr4.douban.com/201310241317/a4ea8cdae493431b8ebf767bd6d9bff0/view/song/small/p1471144.mp3
p48
sg12
g48
sa(dp49
g2
VLoved
p50
sg4
VJJ Heller
p51
sg6
VCome Back to Me
p52
sg8
Vhttp://img3.douban.com/mpic/s25953671.jpg
p53
sg10
Vhttp://mr4.douban.com/201310241317/0cd5cd385b9951f23270bcba66588caf/view/song/small/p1895093.mp3
p54
sg12
g54
sa(dp55
g2
VPainted Red
p56
sg4
VJJ Heller
p57
sg6
VPainted Red
p58
sg8
Vhttp://img3.douban.com/mpic/s26966963.jpg
p59
sg10
Vhttp://mr3.douban.com/201310241317/2142633646e2cf66af019bc10f55808e/view/song/small/p1381240.mp3
p60
sg12
g60
sa(dp61
g2
VLabrador 100 A Co...
p62
sg4
VLasse Lindh
p63
sg6
VC'mon Through
p64
sg8
Vhttp://img4.douban.com/mpic/s2613858.jpg
p65
sg10
Vhttp://mr4.douban.com/201310241317/8d8a5b845bfe8de17f31eb2f71824423/view/song/small/p680802.mp3
p66
sg12
g66
sa(dp67
g2
VBe My Thrill
p68
sg4
VThe Weepies
p69
sg6
VHummingbird
p70
sg8
Vhttp://img3.douban.com/mpic/s4397155.jpg
p71
sg10
Vhttp://mr3.douban.com/201310241317/b3f6414e4e00911c7f62d676035763a8/view/song/small/p1640869.mp3
p72
sg12
g72
sa(dp73
g2
VDear Companion
p74
sg4
VMeg Baird
p75
sg6
VAll I Ever Wanted
p76
sg8
Vhttp://img3.douban.com/mpic/s4713396.jpg
p77
sg10
Vhttp://mr3.douban.com/201310241317/0a9e09dc1ae25387ac4f4593f2bb8c68/view/song/small/p535260.mp3
p78
sg12
g78
sa(dp79
g2
VA Good Day
p80
sg4
VPriscilla Ahn
p81
sg6
VFind My Way Back Home
p82
sg8
Vhttp://img5.douban.com/mpic/s3187209.jpg
p83
sg10
Vhttp://mr3.douban.com/201310241317/d0ca3021a130474052b995e2d7b07e5d/view/song/small/p1381677.mp3
p84
sg12
g84
sa(dp85
g2
VOff The Radar
p86
sg4
VAlly Kerr
p87
sg6
VThere's A World
p88
sg8
Vhttp://img3.douban.com/mpic/s3077624.jpg
p89
sg10
Vhttp://mr3.douban.com/201310241317/0bb292c901ca7f33899d366173628119/view/song/small/p130959.mp3
p90
sg12
g90
sa(dp91
g2
VTwo
p92
sg4
VLenka
p93
sg6
VRoll With The Punches
p94
sg8
Vhttp://img3.douban.com/mpic/s4642994.jpg
p95
sg10
Vhttp://mr4.douban.com/201310241317/1a8a986f2dfd449e34cc60e3ac1f3961/view/song/small/p1703303.mp3
p96
sg12
g96
sa(dp97
g2
VMiracle of Five
p98
sg4
VEleni Mandell
p99
sg6
VWings In His Eyes
p100
sg8
Vhttp://img4.douban.com/mpic/s2961718.jpg
p101
sg10
Vhttp://mr3.douban.com/201310241317/61fd810ad30b226e6b5bd385bbce5de8/view/song/small/p655099.mp3
p102
sg12
g102
sa(dp103
g2
VThe Lost Get Found
p104
sg4
VBritt Nicole
p105
sg6
VHanging On
p106
sg8
Vhttp://img4.douban.com/mpic/s3897928.jpg
p107
sg10
Vhttp://mr3.douban.com/201310241317/0d5604a37644042f79c7e9a1778d2154/view/song/small/p1532910.mp3
p108
sg12
g108
sa(dp109
g2
VOdds and Ends
p110
sg4
VDido
p111
sg6
VSweet Eyed Baby
p112
sg8
Vhttp://img3.douban.com/mpic/s3338552.jpg
p113
sg10
Vhttp://mr5.douban.com/201310241317/f874fa3523dab2a92ff8ed60baea068f/view/song/small/p1537151.mp3
p114
sg12
g114
sa(dp115
g2
VThe Wild One
p116
sg4
VSugarplum Fairy
p117
sg6
VJust A Little Bit More
p118
sg8
Vhttp://img3.douban.com/mpic/s3256265.jpg
p119
sg10
Vhttp://mr3.douban.com/201310241317/86fd75d9cc7bf4831abc7afe4fb0dff3/view/song/small/p1486958.mp3
p120
sg12
g120
sa(dp121
g2
VKeep Movin - Keep...
p122
sg4
VEgil Olsen
p123
sg6
Vlearn to laugh
p124
sg8
Vhttp://img3.douban.com/mpic/s6338820.jpg
p125
sg10
Vhttp://mr3.douban.com/201310241317/439506ee8cd5512518318ecee5f921f4/view/song/small/p1849165.mp3
p126
sg12
g126
sa(dp127
g2
VMy Friends All Di...
p128
sg4
VCocoon
p129
sg6
VHummingbird
p130
sg8
Vhttp://img3.douban.com/view/site/large/public/d7871605c4f61aa.jpg
p131
sg10
Vhttp://mr3.douban.com/201310241317/518d6285733407c8dfd4629e8123a94e/view/song/small/p522060.mp3
p132
sg12
g132
sa(dp133
g2
VLeche
p134
sg4
VGregory And The Hawk
p135
sg6
VOlly Olly Oxen Free
p136
sg8
Vhttp://img3.douban.com/mpic/s4522505.jpg
p137
sg10
Vhttp://mr4.douban.com/201310241317/8114ba0665e4e9d6d73606d74dddd7ab/view/song/small/p1562523.mp3
p138
sg12
g138
sa(dp139
g2
VBest Audiophile V...
p140
sg4
VStacey Kent
p141
sg6
VYou've Got a Friend
p142
sg8
Vhttp://img4.douban.com/mpic/s2955238.jpg
p143
sg10
Vhttp://mr5.douban.com/201310241317/58bdeea5d8e950d19de9bd03d8715d95/view/song/small/p177851.mp3
p144
sg12
g144
sa(dp145
g2
VSmall Planes
p146
sg4
VThe Innocence Mission
p147
sg6
VMigration
p148
sg8
Vhttp://img3.douban.com/mpic/s1413420.jpg
p149
sg10
Vhttp://mr3.douban.com/201310241317/6693a817507d177cf65022c254fc214e/view/song/small/p698378.mp3
p150
sg12
g150
sa(dp151
g2
VYield
p152
sg4
VArco
p153
sg6
Veyes to see
p154
sg8
Vhttp://img3.douban.com/mpic/s4715005.jpg
p155
sg10
Vhttp://mr3.douban.com/201310241317/21521e992248aeaf6a21bd3526c992f6/view/song/small/p1468718.mp3
p156
sg12
g156
sa(dp157
g2
VInland Territory
p158
sg4
VVienna Teng
p159
sg6
VThe Last Snowfall
p160
sg8
Vhttp://img3.douban.com/mpic/s3775721.jpg
p161
sg10
Vhttp://mr3.douban.com/201310241317/1a5c5d317b164d0dc81e23a97930ef89/view/song/small/p1382396.mp3
p162
sg12
g162
sa(dp163
g2
VBest Audiophile V...
p164
sg4
VLydia Gray
p165
sg6
VSorry Seems To Be The Hardest Word
p166
sg8
Vhttp://img3.douban.com/mpic/s4477381.jpg
p167
sg10
Vhttp://mr3.douban.com/201310241317/d5a166bf77fb89f811f94bab68bb8996/view/song/small/p1554765.mp3
p168
sg12
g168
sa(dp169
g2
VAutumn Fallin'
p170
sg4
VJayMay
p171
sg6
VGray Or Blue
p172
sg8
Vhttp://img3.douban.com/mpic/s2983063.jpg
p173
sg10
Vhttp://mr3.douban.com/201310241317/b16a1ca5c7cbc81606bdf6aa68022a65/view/song/small/p1387265.mp3
p174
sg12
g174
sa(dp175
g2
VTwentythree
p176
sg4
VTristan Prettyman
p177
sg6
VLove Love Love
p178
sg8
Vhttp://img3.douban.com/mpic/s4714100.jpg
p179
sg10
Vhttp://mr3.douban.com/201310241317/fb611138d838d8a6af65a3606464b516/view/song/small/p505019.mp3
p180
sg12
g180
sa(dp181
g2
VWhen We Were Small
p182
sg4
VRosie Thomas
p183
sg6
VLorraine
p184
sg8
Vhttp://img3.douban.com/mpic/s4509002.jpg
p185
sg10
Vhttp://mr3.douban.com/201310241317/1ff47100e4a889d769399e2b071ddc4b/view/song/small/p697199.mp3
p186
sg12
g186
sa(dp187
g2
VHow To Save A Life
p188
sg4
VThe Fray
p189
sg6
VHow To Save A Life
p190
sg8
Vhttp://img3.douban.com/mpic/s2545566.jpg
p191
sg10
Vhttp://mr4.douban.com/201310241317/b5638c549da668abfc87a50fbdd07916/view/song/small/p988473.mp3
p192
sg12
g192
sa(dp193
g2
VSweet and Wild
p194
sg4
VJewel
p195
sg6
VFading
p196
sg8
Vhttp://img3.douban.com/mpic/s4370242.jpg
p197
sg10
Vhttp://mr4.douban.com/201310241317/0a071ffcb0f2a3a5d803d0f56fcc247d/view/song/small/p1478792.mp3
p198
sg12
g198
sa(dp199
g2
VRelations
p200
sg4
VKathryn Williams
p201
sg6
VBallad Of Easy River
p202
sg8
Vhttp://img3.douban.com/mpic/s1683470.jpg
p203
sg10
Vhttp://mr4.douban.com/201310241317/1907edb8c63becd3b9511b7976e010ca/view/song/small/p148792.mp3
p204
sg12
g204
sa(dp205
g2
VYou.Me.We
p206
sg4
VCivalias
p207
sg6
VAnything But You
p208
sg8
Vhttp://img3.douban.com/mpic/s3333260.jpg
p209
sg10
Vhttp://mr4.douban.com/201310241317/1837d883101a49b013c4a9df31f90206/view/song/small/p1386424.mp3
p210
sg12
g210
sa(dp211
g2
VTim's House
p212
sg4
VKate Walsh
p213
sg6
VYour Song
p214
sg8
Vhttp://img3.douban.com/mpic/s2401644.jpg
p215
sg10
Vhttp://mr3.douban.com/201310241317/b29ad2289ef5ce47d82aa8a2d4ad7d06/view/song/small/p406986.mp3
p216
sg12
g216
sa(dp217
g2
VOlivia
p218
sg4
VOlivia Ong
p219
sg6
VLuka
p220
sg8
Vhttp://img3.douban.com/mpic/s4239624.jpg
p221
sg10
Vhttp://mr3.douban.com/201310241317/755595a641100dc7a425adcf052bc228/view/song/small/p1458028.mp3
p222
sg12
g222
sa(dp223
g2
VThe Real Thing
p224
sg4
VKate Walsh
p225
sg6
VGreater Than I
p226
sg8
Vhttp://img3.douban.com/mpic/s7019042.jpg
p227
sg10
Vhttp://mr3.douban.com/201310241317/049170ad5632a78668599a51c81145fe/view/song/small/p1775267.mp3
p228
sg12
g228
sa(dp229
g2
VWhile I Walk You ...
p230
sg4
VDylan Mondegreen
p231
sg6
VGirl In Grass
p232
sg8
Vhttp://img3.douban.com/mpic/s2764076.jpg
p233
sg10
Vhttp://mr4.douban.com/201310241317/c148db1e63bcdd9eefb64d024a80d9bc/view/song/small/p140363.mp3
p234
sg12
g234
sa(dp235
g2
VHideaway
p236
sg4
VThe Weepies
p237
sg6
VHideaway
p238
sg8
Vhttp://img5.douban.com/mpic/s3023379.jpg
p239
sg10
Vhttp://mr3.douban.com/201310241317/a906381bac5b9c6bfc0028f8aca9ecac/view/song/small/p167218.mp3
p240
sg12
g240
sa(dp241
g2
VCome Away with Me
p242
sg4
VNorah Jones
p243
sg6
VShoot The Moon
p244
sg8
Vhttp://img3.douban.com/mpic/s3845165.jpg
p245
sg10
Vhttp://mr3.douban.com/201310241317/22bf31f3ebbe0db5fe826ff44623643d/view/song/small/p1027786.mp3
p246
sg12
g246
sa(dp247
g2
VStolen Hill
p248
sg4
VAnika Moa
p249
sg6
VPapercuts
p250
sg8
Vhttp://img3.douban.com/mpic/s2809234.jpg
p251
sg10
Vhttp://mr4.douban.com/201310241317/931c4b6b058fd55345248650a11f51fd/view/song/small/p1544812.mp3
p252
sg12
g252
sa(dp253
g2
VDreaming Through ...
p254
sg4
VVienna Teng
p255
sg6
VCity Hall
p256
sg8
Vhttp://img3.douban.com/mpic/s1666062.jpg
p257
sg10
Vhttp://mr4.douban.com/201310241317/7589436c0cbc7b0e364afaa7b35bfc53/view/song/small/p362102.mp3
p258
sg12
g258
sa.